target datalayout = "e-m:e-p270:32:32-p271:32:32-p272:64:64-i64:64-i128:128-f80:128-n8:16:32:64-S128"
target triple = "x86_64-pc-linux-gnu"

%struct.atomic_p_t = type { ptr }

@dss_max = internal global %struct.atomic_p_t zeroinitializer, align 8
@dss_base = internal global ptr null, align 8

; Function Attrs: alwaysinline nounwind uwtable
define internal i32 @atomic_enum_to_builtin(i32 noundef %0) #2 {
  %2 = alloca i32, align 4
  %3 = alloca i32, align 4
  store i32 %0, ptr %3, align 4, !tbaa !3
  %4 = load i32, ptr %3, align 4, !tbaa !3
  switch i32 %4, label %10 [
    i32 0, label %5
    i32 1, label %6
    i32 2, label %7
    i32 3, label %8
    i32 4, label %9
  ]

5:                                                ; preds = %1
  store i32 0, ptr %2, align 4
  br label %12

6:                                                ; preds = %1
  store i32 2, ptr %2, align 4
  br label %12

7:                                                ; preds = %1
  store i32 3, ptr %2, align 4
  br label %12

8:                                                ; preds = %1
  store i32 4, ptr %2, align 4
  br label %12

9:                                                ; preds = %1
  store i32 5, ptr %2, align 4
  br label %12

10:                                               ; preds = %1
  br label %11

11:                                               ; preds = %10
  unreachable

12:                                               ; preds = %5, %6, %7, %8, %9
  %13 = load i32, ptr %2, align 4
  ret i32 %13
}

; Function Attrs: nounwind uwtable
define internal zeroext i1 @extent_in_dss_helper(ptr noundef %0, ptr noundef %1) #0 {
  %3 = alloca ptr, align 8
  %4 = alloca ptr, align 8
  store ptr %0, ptr %3, align 8, !tbaa !7
  store ptr %1, ptr %4, align 8, !tbaa !7
  %5 = load ptr, ptr %3, align 8, !tbaa !7
  %6 = ptrtoint ptr %5 to i64
  %7 = load ptr, ptr @dss_base, align 8, !tbaa !7
  %8 = ptrtoint ptr %7 to i64
  %9 = icmp uge i64 %6, %8
  br i1 %9, label %10, label %16

10:                                               ; preds = %2
  %11 = load ptr, ptr %3, align 8, !tbaa !7
  %12 = ptrtoint ptr %11 to i64
  %13 = load ptr, ptr %4, align 8, !tbaa !7
  %14 = ptrtoint ptr %13 to i64
  %15 = icmp ult i64 %12, %14
  br label %16

16:                                               ; preds = %10, %2
  %17 = phi i1 [ false, %2 ], [ %15, %10 ]
  ret i1 %17
}

; Function Attrs: alwaysinline nounwind uwtable
define internal ptr @atomic_load_p(ptr noundef %0, i32 noundef %1) #2 {
  %3 = alloca ptr, align 8
  %4 = alloca i32, align 4
  %5 = alloca ptr, align 8
  store ptr %0, ptr %3, align 8, !tbaa !7
  store i32 %1, ptr %4, align 4, !tbaa !3
  call void @llvm.lifetime.start.p0(i64 8, ptr %5) #7
  %6 = load ptr, ptr %3, align 8, !tbaa !7
  %7 = getelementptr inbounds nuw %struct.atomic_p_t, ptr %6, i32 0, i32 0
  %8 = load i32, ptr %4, align 4, !tbaa !3
  %9 = call i32 @atomic_enum_to_builtin(i32 noundef %8)
  switch i32 %9, label %10 [
    i32 1, label %12
    i32 2, label %12
    i32 5, label %14
  ]

10:                                               ; preds = %2
  %11 = load atomic i64, ptr %7 monotonic, align 8
  store i64 %11, ptr %5, align 8
  br label %16

12:                                               ; preds = %2, %2
  %13 = load atomic i64, ptr %7 acquire, align 8
  store i64 %13, ptr %5, align 8
  br label %16

14:                                               ; preds = %2
  %15 = load atomic i64, ptr %7 seq_cst, align 8
  store i64 %15, ptr %5, align 8
  br label %16

16:                                               ; preds = %14, %12, %10
  %17 = load ptr, ptr %5, align 8, !tbaa !7
  call void @llvm.lifetime.end.p0(i64 8, ptr %5) #7
  ret ptr %17
}

; Function Attrs: nounwind uwtable
define zeroext i1 @duckdb_je_extent_dss_mergeable(ptr noundef %0, ptr noundef %1) #0 {
  %3 = alloca i1, align 1
  %4 = alloca ptr, align 8
  %5 = alloca ptr, align 8
  %6 = alloca ptr, align 8
  %7 = alloca i32, align 4
  store ptr %0, ptr %4, align 8, !tbaa !7
  store ptr %1, ptr %5, align 8, !tbaa !7
  call void @llvm.lifetime.start.p0(i64 8, ptr %6) #7
  br label %8

8:                                                ; preds = %2
  br label %9

9:                                                ; preds = %8
  br label %10

10:                                               ; preds = %9
  %11 = load ptr, ptr %4, align 8, !tbaa !7
  %12 = ptrtoint ptr %11 to i64
  %13 = load ptr, ptr @dss_base, align 8, !tbaa !7
  %14 = ptrtoint ptr %13 to i64
  %15 = icmp ult i64 %12, %14
  br i1 %15, label %16, label %23

16:                                               ; preds = %10
  %17 = load ptr, ptr %5, align 8, !tbaa !7
  %18 = ptrtoint ptr %17 to i64
  %19 = load ptr, ptr @dss_base, align 8, !tbaa !7
  %20 = ptrtoint ptr %19 to i64
  %21 = icmp ult i64 %18, %20
  br i1 %21, label %22, label %23

22:                                               ; preds = %16
  store i1 true, ptr %3, align 1
  store i32 1, ptr %7, align 4
  br label %34

23:                                               ; preds = %16, %10
  %24 = call ptr @atomic_load_p(ptr noundef @dss_max, i32 noundef 1)
  store ptr %24, ptr %6, align 8, !tbaa !7
  %25 = load ptr, ptr %4, align 8, !tbaa !7
  %26 = load ptr, ptr %6, align 8, !tbaa !7
  %27 = call zeroext i1 @extent_in_dss_helper(ptr noundef %25, ptr noundef %26)
  %28 = zext i1 %27 to i32
  %29 = load ptr, ptr %5, align 8, !tbaa !7
  %30 = load ptr, ptr %6, align 8, !tbaa !7
  %31 = call zeroext i1 @extent_in_dss_helper(ptr noundef %29, ptr noundef %30)
  %32 = zext i1 %31 to i32
  %33 = icmp eq i32 %28, %32
  store i1 %33, ptr %3, align 1
  store i32 1, ptr %7, align 4
  br label %34

34:                                               ; preds = %23, %22
  call void @llvm.lifetime.end.p0(i64 8, ptr %6) #7
  %35 = load i1, ptr %3, align 1
  ret i1 %35
}